(dp0
S'COPYRIGHT_HTML_COMMENT'
p1
S'Copyright 2000-2002 by <a href="http://www.1ci.de">1Ci(R) GmbH</a>'
p2
sS'LAST_TEMPLATE'
p3
S'Navigation,topframe'
p4
sS'login'
p5
S'1'
p6
sS'COPYRIGHT_HTML'
p7
g2
sS'Subnavcount'
p8
S'1'
p9
sS'REFERER'
p10
S'http://www.gt-immo2.dev.1ci.de/1Ci/dmerce?qTemplate=Index,index_2'
p11
sS'ACTUAL_TEMPLATE'
p12
S'Navigation,list'
p13
sS'REFERER_TEMPLATE'
p14
NsS'Textcount'
p15
S'0'
p16
sS'Daskin'
p17
S'9'
p18
sS'VERSION'
p19
S'2.3.0'
p20
sS'GruppenID'
p21
S'0'
p22
s.