(dp0
S'Subnavcount'
p1
S'1'
p2
sS'VERSION'
p3
S'2.3.0'
p4
sS'SubTextcount'
p5
g2
sS'login'
p6
S'0'
p7
sS'GruppenID'
p8
g7
sS'COPYRIGHT_HTML'
p9
S'Copyright 2000-2002 by <a href="http://www.1ci.de">1Ci(R) GmbH</a>'
p10
sS'COPYRIGHT_HTML_COMMENT'
p11
g10
sS'REFERER'
p12
S'http://www.gt-immo2.dev.1ci.de/1Ci/dmerce?qTemplate=Navigation,list&NavID=9999'
p13
sS'Textcount'
p14
g7
sS'REFERER_TEMPLATE'
p15
NsS'Daskin'
p16
S'9'
p17
sS'LAST_TEMPLATE'
p18
S'suchen,liste'
p19
sS'ACTUAL_TEMPLATE'
p20
S'suchen,liste'
p21
s.