(dp0
S'REFERER_TEMPLATE'
p1
NsS'Daskin'
p2
S'9'
p3
sS'ACTUAL_TEMPLATE'
p4
S'Navigation,list'
p5
sS'login'
p6
S'1'
p7
sS'COPYRIGHT_HTML'
p8
S'Copyright 2000-2002 by <a href="http://www.1ci.de">1Ci(R) GmbH</a>'
p9
sS'COPYRIGHT_HTML_COMMENT'
p10
g9
sS'REFERER'
p11
S''
p12
sS'GruppenID'
p13
S'0'
p14
sS'VERSION'
p15
S'2.3.0'
p16
sS'LAST_TEMPLATE'
p17
S'Impressum,view'
p18
s.