(dp0
S'COPYRIGHT_HTML_COMMENT'
p1
S'Copyright 2000-2002 by <a href="http://www.1ci.de">1Ci(R) GmbH</a>'
p2
sS'LAST_TEMPLATE'
p3
S'Navigation,select_agent'
p4
sS'login'
p5
S'1'
p6
sS'COPYRIGHT_HTML'
p7
g2
sS'ObjectGruppenID'
p8
S'0'
p9
sS'REFERER'
p10
S''
p11
sS'Textcount'
p12
g9
sS'Objectcount'
p13
g6
sS'TextarticleGruppenID'
p14
g9
sS'SubTextcount'
p15
g6
sS'GruppenID'
p16
g9
sS'Subgroupcount'
p17
S'2'
p18
sS'count4'
p19
g9
sS'count2'
p20
g9
sS'count3'
p21
g9
sS'count1'
p22
g9
sS'Subnavcount'
p23
S'3'
p24
sS'VERSION'
p25
S'2.3.0'
p26
sS'REFERER_TEMPLATE'
p27
NsS'Daskin'
p28
S'9'
p29
sS'HeadID'
p30
g18
sS'ACTUAL_TEMPLATE'
p31
S'Navigation,select_agent'
p32
s.