(dp0
S'COPYRIGHT_HTML_COMMENT'
p1
S'Copyright 2000-2002 by <a href="http://www.1ci.de">1Ci(R) GmbH</a>'
p2
sS'LAST_TEMPLATE'
p3
S'Object,maintain'
p4
sS'login'
p5
S'1'
p6
sS'COPYRIGHT_HTML'
p7
g2
sS'ObjectGruppenID'
p8
S'0'
p9
sS'Subnavcount'
p10
g6
sS'REFERER'
p11
S''
p12
sS'Textcount'
p13
g9
sS'REFERER_TEMPLATE'
p14
NsS'Daskin'
p15
S'9'
p16
sS'VERSION'
p17
S'2.3.0'
p18
sS'GruppenID'
p19
g9
sS'ACTUAL_TEMPLATE'
p20
S'Object,view'
p21
s.