(dp0
S'LAST_TEMPLATE'
p1
S'Navigation,tree'
p2
sS'login'
p3
S'1'
p4
sS'COPYRIGHT_HTML'
p5
S'Copyright 2000-2002 by <a href="http://www.1ci.de">1Ci(R) GmbH</a>'
p6
sS'ObjectGruppenID'
p7
S'0'
p8
sS'COPYRIGHT_HTML_COMMENT'
p9
g6
sS'REFERER'
p10
S''
p11
sS'HeadID'
p12
S'1'
p13
sS'Objectcount'
p14
g13
sS'REFERER_TEMPLATE'
p15
NsS'Daskin'
p16
S'9'
p17
sS'VERSION'
p18
S'2.3.0'
p19
sS'GruppenID'
p20
g8
sS'ACTUAL_TEMPLATE'
p21
S'Navigation,tree_rights'
p22
sS'Subgroupcount'
p23
g13
s.