(dp0
S'COPYRIGHT_HTML_COMMENT'
p1
S'Copyright 2000-2002 by <a href="http://www.1ci.de">1Ci(R) GmbH</a>'
p2
sS'REFERER_TEMPLATE'
p3
NsS'login'
p4
S'0'
p5
sS'COPYRIGHT_HTML'
p6
g2
sS'Subnavcount'
p7
S'1'
p8
sS'REFERER'
p9
S'http://www.gt-immo2.dev.1ci.de/1Ci/dmerce?qTemplate=Index,index_2'
p10
sS'ACTUAL_TEMPLATE'
p11
S'Navigation,list'
p12
sS'LAST_TEMPLATE'
p13
S'Footer,footer'
p14
sS'Textcount'
p15
S'0'
p16
sS'Daskin'
p17
S'9'
p18
sS'VERSION'
p19
S'2.3.0'
p20
sS'GruppenID'
p21
g5
s.