(dp0
S'Subnavcount'
p1
S'1'
p2
sS'LAST_TEMPLATE'
p3
S'Object,list'
p4
sS'login'
p5
g2
sS'COPYRIGHT_HTML'
p6
S'Copyright 2000-2002 by <a href="http://www.1ci.de">1Ci(R) GmbH</a>'
p7
sS'ObjectGruppenID'
p8
S'0'
p9
sS'COPYRIGHT_HTML_COMMENT'
p10
g7
sS'REFERER'
p11
S'http://www.gt-immo2.dev.1ci.de/1Ci/dmerce?qTemplate=Object,list&GroupID=1&SubgroupID=1&qSuperSearch=Object.SubNavID*1'
p12
sS'Textcount'
p13
S'0'
p14
sS'REFERER_TEMPLATE'
p15
NsS'Daskin'
p16
S'9'
p17
sS'VERSION'
p18
S'2.3.0'
p19
sS'GruppenID'
p20
g14
sS'ACTUAL_TEMPLATE'
p21
S'Object,maintain'
p22
s.