(dp0
S'LAST_TEMPLATE'
p1
S'Object,intro_maintain'
p2
sS'login'
p3
S'1'
p4
sS'COPYRIGHT_HTML'
p5
S'Copyright 2000-2002 by <a href="http://www.1ci.de">1Ci(R) GmbH</a>'
p6
sS'ObjectGruppenID'
p7
S'0'
p8
sS'REFERER'
p9
S''
p10
sS'HeadID'
p11
g4
sS'Objectcount'
p12
g4
sS'Textcount'
p13
g8
sS'ACTUAL_TEMPLATE'
p14
S'Object,intro'
p15
sS'GruppenID'
p16
g8
sS'Subgroupcount'
p17
g4
sS'Subnavcount'
p18
g4
sS'count4'
p19
g8
sS'count2'
p20
g8
sS'count3'
p21
g8
sS'count1'
p22
g8
sS'COPYRIGHT_HTML_COMMENT'
p23
g6
sS'VERSION'
p24
S'2.3.0'
p25
sS'REFERER_TEMPLATE'
p26
NsS'Daskin'
p27
S'9'
p28
sS'SubTextcount'
p29
g4
sS'WordlistGruppenID'
p30
g8
s.