(dp0
S'LAST_TEMPLATE'
p1
S'Object,list'
p2
sS'Daskin'
p3
S'9'
p4
sS'login'
p5
S'1'
p6
sS'COPYRIGHT_HTML'
p7
S'Copyright 2000-2002 by <a href="http://www.1ci.de">1Ci(R) GmbH</a>'
p8
sS'GruppenID'
p9
S'0'
p10
sS'COPYRIGHT_HTML_COMMENT'
p11
g8
sS'REFERER'
p12
S'http://www.gt-immo2.dev.1ci.de/1Ci/dmerce?qTemplate=suchen,suchmaske'
p13
sS'ACTUAL_TEMPLATE'
p14
S'suchen,liste_text'
p15
sS'VERSION'
p16
S'2.3.0'
p17
sS'REFERER_TEMPLATE'
p18
Ns.